target datalayout = "e-m:e-p270:32:32-p271:32:32-p272:64:64-i64:64-i128:128-f80:128-n8:16:32:64-S128"
target triple = "x86_64-pc-linux-gnu"

%struct.rb_red_blk_tree = type { ptr, ptr, ptr, ptr }
%struct.rb_red_blk_node = type { ptr, i32, ptr, ptr, ptr }

; Function Attrs: nounwind uwtable
define ptr @TreeSuccessor(ptr noundef %0, ptr noundef %1) #0 {
  %3 = alloca ptr, align 8
  %4 = alloca ptr, align 8
  %5 = alloca ptr, align 8
  %6 = alloca ptr, align 8
  %7 = alloca ptr, align 8
  %8 = alloca ptr, align 8
  %9 = alloca i32, align 4
  store ptr %0, ptr %4, align 8, !tbaa !7
  store ptr %1, ptr %5, align 8, !tbaa !15
  call void @llvm.lifetime.start.p0(i64 8, ptr %6) #4
  call void @llvm.lifetime.start.p0(i64 8, ptr %7) #4
  %10 = load ptr, ptr %4, align 8, !tbaa !7
  %11 = getelementptr inbounds nuw %struct.rb_red_blk_tree, ptr %10, i32 0, i32 3
  %12 = load ptr, ptr %11, align 8, !tbaa !12
  store ptr %12, ptr %7, align 8, !tbaa !15
  call void @llvm.lifetime.start.p0(i64 8, ptr %8) #4
  %13 = load ptr, ptr %4, align 8, !tbaa !7
  %14 = getelementptr inbounds nuw %struct.rb_red_blk_tree, ptr %13, i32 0, i32 2
  %15 = load ptr, ptr %14, align 8, !tbaa !9
  store ptr %15, ptr %8, align 8, !tbaa !15
  %16 = load ptr, ptr %7, align 8, !tbaa !15
  %17 = load ptr, ptr %5, align 8, !tbaa !15
  %18 = getelementptr inbounds nuw %struct.rb_red_blk_node, ptr %17, i32 0, i32 3
  %19 = load ptr, ptr %18, align 8, !tbaa !16
  store ptr %19, ptr %6, align 8, !tbaa !15
  %20 = icmp ne ptr %16, %19
  br i1 %20, label %21, label %34

21:                                               ; preds = %2
  br label %22

22:                                               ; preds = %28, %21
  %23 = load ptr, ptr %6, align 8, !tbaa !15
  %24 = getelementptr inbounds nuw %struct.rb_red_blk_node, ptr %23, i32 0, i32 2
  %25 = load ptr, ptr %24, align 8, !tbaa !19
  %26 = load ptr, ptr %7, align 8, !tbaa !15
  %27 = icmp ne ptr %25, %26
  br i1 %27, label %28, label %32

28:                                               ; preds = %22
  %29 = load ptr, ptr %6, align 8, !tbaa !15
  %30 = getelementptr inbounds nuw %struct.rb_red_blk_node, ptr %29, i32 0, i32 2
  %31 = load ptr, ptr %30, align 8, !tbaa !19
  store ptr %31, ptr %6, align 8, !tbaa !15
  br label %22, !llvm.loop !26

32:                                               ; preds = %22
  %33 = load ptr, ptr %6, align 8, !tbaa !15
  store ptr %33, ptr %3, align 8
  store i32 1, ptr %9, align 4
  br label %57

34:                                               ; preds = %2
  %35 = load ptr, ptr %5, align 8, !tbaa !15
  %36 = getelementptr inbounds nuw %struct.rb_red_blk_node, ptr %35, i32 0, i32 4
  %37 = load ptr, ptr %36, align 8, !tbaa !20
  store ptr %37, ptr %6, align 8, !tbaa !15
  br label %38

38:                                               ; preds = %44, %34
  %39 = load ptr, ptr %5, align 8, !tbaa !15
  %40 = load ptr, ptr %6, align 8, !tbaa !15
  %41 = getelementptr inbounds nuw %struct.rb_red_blk_node, ptr %40, i32 0, i32 3
  %42 = load ptr, ptr %41, align 8, !tbaa !16
  %43 = icmp eq ptr %39, %42
  br i1 %43, label %44, label %49

44:                                               ; preds = %38
  %45 = load ptr, ptr %6, align 8, !tbaa !15
  store ptr %45, ptr %5, align 8, !tbaa !15
  %46 = load ptr, ptr %6, align 8, !tbaa !15
  %47 = getelementptr inbounds nuw %struct.rb_red_blk_node, ptr %46, i32 0, i32 4
  %48 = load ptr, ptr %47, align 8, !tbaa !20
  store ptr %48, ptr %6, align 8, !tbaa !15
  br label %38, !llvm.loop !27

49:                                               ; preds = %38
  %50 = load ptr, ptr %6, align 8, !tbaa !15
  %51 = load ptr, ptr %8, align 8, !tbaa !15
  %52 = icmp eq ptr %50, %51
  br i1 %52, label %53, label %55

53:                                               ; preds = %49
  %54 = load ptr, ptr %7, align 8, !tbaa !15
  store ptr %54, ptr %3, align 8
  store i32 1, ptr %9, align 4
  br label %57

55:                                               ; preds = %49
  %56 = load ptr, ptr %6, align 8, !tbaa !15
  store ptr %56, ptr %3, align 8
  store i32 1, ptr %9, align 4
  br label %57

57:                                               ; preds = %55, %53, %32
  call void @llvm.lifetime.end.p0(i64 8, ptr %8) #4
  call void @llvm.lifetime.end.p0(i64 8, ptr %7) #4
  call void @llvm.lifetime.end.p0(i64 8, ptr %6) #4
  %58 = load ptr, ptr %3, align 8
  ret ptr %58
}

; Function Attrs: nounwind uwtable
define void @RBDelete(ptr noundef %0, ptr noundef %1) #0 {
  %3 = alloca ptr, align 8
  %4 = alloca ptr, align 8
  %5 = alloca ptr, align 8
  %6 = alloca ptr, align 8
  %7 = alloca ptr, align 8
  %8 = alloca ptr, align 8
  store ptr %0, ptr %3, align 8, !tbaa !7
  store ptr %1, ptr %4, align 8, !tbaa !15
  call void @llvm.lifetime.start.p0(i64 8, ptr %5) #4
  call void @llvm.lifetime.start.p0(i64 8, ptr %6) #4
  call void @llvm.lifetime.start.p0(i64 8, ptr %7) #4
  %9 = load ptr, ptr %3, align 8, !tbaa !7
  %10 = getelementptr inbounds nuw %struct.rb_red_blk_tree, ptr %9, i32 0, i32 3
  %11 = load ptr, ptr %10, align 8, !tbaa !12
  store ptr %11, ptr %7, align 8, !tbaa !15
  call void @llvm.lifetime.start.p0(i64 8, ptr %8) #4
  %12 = load ptr, ptr %3, align 8, !tbaa !7
  %13 = getelementptr inbounds nuw %struct.rb_red_blk_tree, ptr %12, i32 0, i32 2
  %14 = load ptr, ptr %13, align 8, !tbaa !9
  store ptr %14, ptr %8, align 8, !tbaa !15
  %15 = load ptr, ptr %4, align 8, !tbaa !15
  %16 = getelementptr inbounds nuw %struct.rb_red_blk_node, ptr %15, i32 0, i32 2
  %17 = load ptr, ptr %16, align 8, !tbaa !19
  %18 = load ptr, ptr %7, align 8, !tbaa !15
  %19 = icmp eq ptr %17, %18
  br i1 %19, label %26, label %20

20:                                               ; preds = %2
  %21 = load ptr, ptr %4, align 8, !tbaa !15
  %22 = getelementptr inbounds nuw %struct.rb_red_blk_node, ptr %21, i32 0, i32 3
  %23 = load ptr, ptr %22, align 8, !tbaa !16
  %24 = load ptr, ptr %7, align 8, !tbaa !15
  %25 = icmp eq ptr %23, %24
  br i1 %25, label %26, label %28

26:                                               ; preds = %20, %2
  %27 = load ptr, ptr %4, align 8, !tbaa !15
  br label %32

28:                                               ; preds = %20
  %29 = load ptr, ptr %3, align 8, !tbaa !7
  %30 = load ptr, ptr %4, align 8, !tbaa !15
  %31 = call ptr @TreeSuccessor(ptr noundef %29, ptr noundef %30)
  br label %32

32:                                               ; preds = %28, %26
  %33 = phi ptr [ %27, %26 ], [ %31, %28 ]
  store ptr %33, ptr %5, align 8, !tbaa !15
  %34 = load ptr, ptr %5, align 8, !tbaa !15
  %35 = getelementptr inbounds nuw %struct.rb_red_blk_node, ptr %34, i32 0, i32 2
  %36 = load ptr, ptr %35, align 8, !tbaa !19
  %37 = load ptr, ptr %7, align 8, !tbaa !15
  %38 = icmp eq ptr %36, %37
  br i1 %38, label %39, label %43

39:                                               ; preds = %32
  %40 = load ptr, ptr %5, align 8, !tbaa !15
  %41 = getelementptr inbounds nuw %struct.rb_red_blk_node, ptr %40, i32 0, i32 3
  %42 = load ptr, ptr %41, align 8, !tbaa !16
  br label %47

43:                                               ; preds = %32
  %44 = load ptr, ptr %5, align 8, !tbaa !15
  %45 = getelementptr inbounds nuw %struct.rb_red_blk_node, ptr %44, i32 0, i32 2
  %46 = load ptr, ptr %45, align 8, !tbaa !19
  br label %47

47:                                               ; preds = %43, %39
  %48 = phi ptr [ %42, %39 ], [ %46, %43 ]
  store ptr %48, ptr %6, align 8, !tbaa !15
  %49 = load ptr, ptr %8, align 8, !tbaa !15
  %50 = load ptr, ptr %5, align 8, !tbaa !15
  %51 = getelementptr inbounds nuw %struct.rb_red_blk_node, ptr %50, i32 0, i32 4
  %52 = load ptr, ptr %51, align 8, !tbaa !20
  %53 = load ptr, ptr %6, align 8, !tbaa !15
  %54 = getelementptr inbounds nuw %struct.rb_red_blk_node, ptr %53, i32 0, i32 4
  store ptr %52, ptr %54, align 8, !tbaa !20
  %55 = icmp eq ptr %49, %52
  br i1 %55, label %56, label %60

56:                                               ; preds = %47
  %57 = load ptr, ptr %6, align 8, !tbaa !15
  %58 = load ptr, ptr %8, align 8, !tbaa !15
  %59 = getelementptr inbounds nuw %struct.rb_red_blk_node, ptr %58, i32 0, i32 2
  store ptr %57, ptr %59, align 8, !tbaa !19
  br label %81

60:                                               ; preds = %47
  %61 = load ptr, ptr %5, align 8, !tbaa !15
  %62 = load ptr, ptr %5, align 8, !tbaa !15
  %63 = getelementptr inbounds nuw %struct.rb_red_blk_node, ptr %62, i32 0, i32 4
  %64 = load ptr, ptr %63, align 8, !tbaa !20
  %65 = getelementptr inbounds nuw %struct.rb_red_blk_node, ptr %64, i32 0, i32 2
  %66 = load ptr, ptr %65, align 8, !tbaa !19
  %67 = icmp eq ptr %61, %66
  br i1 %67, label %68, label %74

68:                                               ; preds = %60
  %69 = load ptr, ptr %6, align 8, !tbaa !15
  %70 = load ptr, ptr %5, align 8, !tbaa !15
  %71 = getelementptr inbounds nuw %struct.rb_red_blk_node, ptr %70, i32 0, i32 4
  %72 = load ptr, ptr %71, align 8, !tbaa !20
  %73 = getelementptr inbounds nuw %struct.rb_red_blk_node, ptr %72, i32 0, i32 2
  store ptr %69, ptr %73, align 8, !tbaa !19
  br label %80

74:                                               ; preds = %60
  %75 = load ptr, ptr %6, align 8, !tbaa !15
  %76 = load ptr, ptr %5, align 8, !tbaa !15
  %77 = getelementptr inbounds nuw %struct.rb_red_blk_node, ptr %76, i32 0, i32 4
  %78 = load ptr, ptr %77, align 8, !tbaa !20
  %79 = getelementptr inbounds nuw %struct.rb_red_blk_node, ptr %78, i32 0, i32 3
  store ptr %75, ptr %79, align 8, !tbaa !16
  br label %80

80:                                               ; preds = %74, %68
  br label %81

81:                                               ; preds = %80, %56
  %82 = load ptr, ptr %5, align 8, !tbaa !15
  %83 = load ptr, ptr %4, align 8, !tbaa !15
  %84 = icmp ne ptr %82, %83
  br i1 %84, label %85, label %150

85:                                               ; preds = %81
  %86 = load ptr, ptr %5, align 8, !tbaa !15
  %87 = getelementptr inbounds nuw %struct.rb_red_blk_node, ptr %86, i32 0, i32 1
  %88 = load i32, ptr %87, align 8, !tbaa !21
  %89 = icmp ne i32 %88, 0
  br i1 %89, label %93, label %90

90:                                               ; preds = %85
  %91 = load ptr, ptr %3, align 8, !tbaa !7
  %92 = load ptr, ptr %6, align 8, !tbaa !15
  call void @RBDeleteFixUp(ptr noundef %91, ptr noundef %92)
  br label %93

93:                                               ; preds = %90, %85
  %94 = load ptr, ptr %3, align 8, !tbaa !7
  %95 = getelementptr inbounds nuw %struct.rb_red_blk_tree, ptr %94, i32 0, i32 1
  %96 = load ptr, ptr %95, align 8, !tbaa !14
  %97 = load ptr, ptr %4, align 8, !tbaa !15
  %98 = getelementptr inbounds nuw %struct.rb_red_blk_node, ptr %97, i32 0, i32 0
  %99 = load ptr, ptr %98, align 8, !tbaa !22
  call void %96(ptr noundef %99)
  %100 = load ptr, ptr %4, align 8, !tbaa !15
  %101 = getelementptr inbounds nuw %struct.rb_red_blk_node, ptr %100, i32 0, i32 2
  %102 = load ptr, ptr %101, align 8, !tbaa !19
  %103 = load ptr, ptr %5, align 8, !tbaa !15
  %104 = getelementptr inbounds nuw %struct.rb_red_blk_node, ptr %103, i32 0, i32 2
  store ptr %102, ptr %104, align 8, !tbaa !19
  %105 = load ptr, ptr %4, align 8, !tbaa !15
  %106 = getelementptr inbounds nuw %struct.rb_red_blk_node, ptr %105, i32 0, i32 3
  %107 = load ptr, ptr %106, align 8, !tbaa !16
  %108 = load ptr, ptr %5, align 8, !tbaa !15
  %109 = getelementptr inbounds nuw %struct.rb_red_blk_node, ptr %108, i32 0, i32 3
  store ptr %107, ptr %109, align 8, !tbaa !16
  %110 = load ptr, ptr %4, align 8, !tbaa !15
  %111 = getelementptr inbounds nuw %struct.rb_red_blk_node, ptr %110, i32 0, i32 4
  %112 = load ptr, ptr %111, align 8, !tbaa !20
  %113 = load ptr, ptr %5, align 8, !tbaa !15
  %114 = getelementptr inbounds nuw %struct.rb_red_blk_node, ptr %113, i32 0, i32 4
  store ptr %112, ptr %114, align 8, !tbaa !20
  %115 = load ptr, ptr %4, align 8, !tbaa !15
  %116 = getelementptr inbounds nuw %struct.rb_red_blk_node, ptr %115, i32 0, i32 1
  %117 = load i32, ptr %116, align 8, !tbaa !21
  %118 = load ptr, ptr %5, align 8, !tbaa !15
  %119 = getelementptr inbounds nuw %struct.rb_red_blk_node, ptr %118, i32 0, i32 1
  store i32 %117, ptr %119, align 8, !tbaa !21
  %120 = load ptr, ptr %5, align 8, !tbaa !15
  %121 = load ptr, ptr %4, align 8, !tbaa !15
  %122 = getelementptr inbounds nuw %struct.rb_red_blk_node, ptr %121, i32 0, i32 3
  %123 = load ptr, ptr %122, align 8, !tbaa !16
  %124 = getelementptr inbounds nuw %struct.rb_red_blk_node, ptr %123, i32 0, i32 4
  store ptr %120, ptr %124, align 8, !tbaa !20
  %125 = load ptr, ptr %4, align 8, !tbaa !15
  %126 = getelementptr inbounds nuw %struct.rb_red_blk_node, ptr %125, i32 0, i32 2
  %127 = load ptr, ptr %126, align 8, !tbaa !19
  %128 = getelementptr inbounds nuw %struct.rb_red_blk_node, ptr %127, i32 0, i32 4
  store ptr %120, ptr %128, align 8, !tbaa !20
  %129 = load ptr, ptr %4, align 8, !tbaa !15
  %130 = load ptr, ptr %4, align 8, !tbaa !15
  %131 = getelementptr inbounds nuw %struct.rb_red_blk_node, ptr %130, i32 0, i32 4
  %132 = load ptr, ptr %131, align 8, !tbaa !20
  %133 = getelementptr inbounds nuw %struct.rb_red_blk_node, ptr %132, i32 0, i32 2
  %134 = load ptr, ptr %133, align 8, !tbaa !19
  %135 = icmp eq ptr %129, %134
  br i1 %135, label %136, label %142

136:                                              ; preds = %93
  %137 = load ptr, ptr %5, align 8, !tbaa !15
  %138 = load ptr, ptr %4, align 8, !tbaa !15
  %139 = getelementptr inbounds nuw %struct.rb_red_blk_node, ptr %138, i32 0, i32 4
  %140 = load ptr, ptr %139, align 8, !tbaa !20
  %141 = getelementptr inbounds nuw %struct.rb_red_blk_node, ptr %140, i32 0, i32 2
  store ptr %137, ptr %141, align 8, !tbaa !19
  br label %148

142:                                              ; preds = %93
  %143 = load ptr, ptr %5, align 8, !tbaa !15
  %144 = load ptr, ptr %4, align 8, !tbaa !15
  %145 = getelementptr inbounds nuw %struct.rb_red_blk_node, ptr %144, i32 0, i32 4
  %146 = load ptr, ptr %145, align 8, !tbaa !20
  %147 = getelementptr inbounds nuw %struct.rb_red_blk_node, ptr %146, i32 0, i32 3
  store ptr %143, ptr %147, align 8, !tbaa !16
  br label %148

148:                                              ; preds = %142, %136
  %149 = load ptr, ptr %4, align 8, !tbaa !15
  call void @free(ptr noundef %149) #4
  br label %166

150:                                              ; preds = %81
  %151 = load ptr, ptr %3, align 8, !tbaa !7
  %152 = getelementptr inbounds nuw %struct.rb_red_blk_tree, ptr %151, i32 0, i32 1
  %153 = load ptr, ptr %152, align 8, !tbaa !14
  %154 = load ptr, ptr %5, align 8, !tbaa !15
  %155 = getelementptr inbounds nuw %struct.rb_red_blk_node, ptr %154, i32 0, i32 0
  %156 = load ptr, ptr %155, align 8, !tbaa !22
  call void %153(ptr noundef %156)
  %157 = load ptr, ptr %5, align 8, !tbaa !15
  %158 = getelementptr inbounds nuw %struct.rb_red_blk_node, ptr %157, i32 0, i32 1
  %159 = load i32, ptr %158, align 8, !tbaa !21
  %160 = icmp ne i32 %159, 0
  br i1 %160, label %164, label %161

161:                                              ; preds = %150
  %162 = load ptr, ptr %3, align 8, !tbaa !7
  %163 = load ptr, ptr %6, align 8, !tbaa !15
  call void @RBDeleteFixUp(ptr noundef %162, ptr noundef %163)
  br label %164

164:                                              ; preds = %161, %150
  %165 = load ptr, ptr %5, align 8, !tbaa !15
  call void @free(ptr noundef %165) #4
  br label %166

166:                                              ; preds = %164, %148
  call void @llvm.lifetime.end.p0(i64 8, ptr %8) #4
  call void @llvm.lifetime.end.p0(i64 8, ptr %7) #4
  call void @llvm.lifetime.end.p0(i64 8, ptr %6) #4
  call void @llvm.lifetime.end.p0(i64 8, ptr %5) #4
  ret void
}