; Function Attrs: nounwind uwtable
define void @RBDelete(ptr noundef readonly captures(none) %0, ptr noundef %1) local_unnamed_addr #3 {
  %3 = getelementptr inbounds nuw i8, ptr %0, i64 24
  %4 = load ptr, ptr %3, align 8, !tbaa !10
  %5 = getelementptr inbounds nuw i8, ptr %0, i64 16
  %6 = load ptr, ptr %5, align 8, !tbaa !18
  %7 = getelementptr inbounds nuw i8, ptr %1, i64 16
  %8 = load ptr, ptr %7, align 8, !tbaa !14
  %9 = icmp eq ptr %8, %4
  br i1 %9, label %TreeSuccessor.exit, label %10

10:                                               ; preds = %2
  %11 = getelementptr inbounds nuw i8, ptr %1, i64 24
  %12 = load ptr, ptr %11, align 8, !tbaa !11
  %13 = icmp eq ptr %12, %4
  br i1 %13, label %TreeSuccessor.exit, label %.preheader24.i

.preheader24.i:                                   ; preds = %10, %.preheader24.i
  %.019.i = phi ptr [ %15, %.preheader24.i ], [ %12, %10 ]
  %14 = getelementptr inbounds nuw i8, ptr %.019.i, i64 16
  %15 = load ptr, ptr %14, align 8, !tbaa !14
  %.not23.i = icmp eq ptr %15, %4
  br i1 %.not23.i, label %TreeSuccessor.exit, label %.preheader24.i, !llvm.loop !23

TreeSuccessor.exit:                               ; preds = %.preheader24.i, %2, %10
  %16 = phi ptr [ %8, %10 ], [ %8, %2 ], [ %15, %.preheader24.i ]
  %17 = phi ptr [ %1, %10 ], [ %1, %2 ], [ %.019.i, %.preheader24.i ]
  %18 = getelementptr inbounds nuw i8, ptr %17, i64 16
  %19 = icmp eq ptr %16, %4
  br i1 %19, label %20, label %23

20:                                               ; preds = %TreeSuccessor.exit
  %21 = getelementptr inbounds nuw i8, ptr %17, i64 24
  %22 = load ptr, ptr %21, align 8, !tbaa !11
  br label %23

23:                                               ; preds = %TreeSuccessor.exit, %20
  %24 = phi ptr [ %22, %20 ], [ %16, %TreeSuccessor.exit ]
  %25 = getelementptr inbounds nuw i8, ptr %17, i64 32
  %26 = load ptr, ptr %25, align 8, !tbaa !15
  %27 = getelementptr inbounds nuw i8, ptr %24, i64 32
  store ptr %26, ptr %27, align 8, !tbaa !15
  %28 = icmp eq ptr %6, %26
  br i1 %28, label %29, label %31

29:                                               ; preds = %23
  %30 = getelementptr inbounds nuw i8, ptr %6, i64 16
  store ptr %24, ptr %30, align 8, !tbaa !14
  br label %38

31:                                               ; preds = %23
  %32 = getelementptr inbounds nuw i8, ptr %26, i64 16
  %33 = load ptr, ptr %32, align 8, !tbaa !14
  %34 = icmp eq ptr %17, %33
  br i1 %34, label %35, label %36

35:                                               ; preds = %31
  store ptr %24, ptr %32, align 8, !tbaa !14
  br label %38

36:                                               ; preds = %31
  %37 = getelementptr inbounds nuw i8, ptr %26, i64 24
  store ptr %24, ptr %37, align 8, !tbaa !11
  br label %38

38:                                               ; preds = %35, %36, %29
  %.not = icmp eq ptr %17, %1
  br i1 %.not, label %64, label %39

39:                                               ; preds = %38
  %40 = getelementptr inbounds nuw i8, ptr %17, i64 8
  %41 = load i32, ptr %40, align 8, !tbaa !16
  %.not60 = icmp eq i32 %41, 0
  br i1 %.not60, label %42, label %43

42:                                               ; preds = %39
  tail call fastcc void @RBDeleteFixUp(ptr noundef %0, ptr noundef nonnull %24)
  br label %43

43:                                               ; preds = %42, %39
  %44 = getelementptr inbounds nuw i8, ptr %0, i64 8
  %45 = load ptr, ptr %44, align 8, !tbaa !9
  %46 = load ptr, ptr %1, align 8, !tbaa !17
  tail call void %45(ptr noundef %46) #7
  %47 = load ptr, ptr %7, align 8, !tbaa !14
  store ptr %47, ptr %18, align 8, !tbaa !14
  %48 = getelementptr inbounds nuw i8, ptr %1, i64 24
  %49 = load ptr, ptr %48, align 8, !tbaa !11
  %50 = getelementptr inbounds nuw i8, ptr %17, i64 24
  store ptr %49, ptr %50, align 8, !tbaa !11
  %51 = getelementptr inbounds nuw i8, ptr %1, i64 32
  %52 = load ptr, ptr %51, align 8, !tbaa !15
  store ptr %52, ptr %25, align 8, !tbaa !15
  %53 = getelementptr inbounds nuw i8, ptr %1, i64 8
  %54 = load i32, ptr %53, align 8, !tbaa !16
  store i32 %54, ptr %40, align 8, !tbaa !16
  %55 = getelementptr inbounds nuw i8, ptr %49, i64 32
  store ptr %17, ptr %55, align 8, !tbaa !15
  %56 = getelementptr inbounds nuw i8, ptr %47, i64 32
  store ptr %17, ptr %56, align 8, !tbaa !15
  %57 = load ptr, ptr %51, align 8, !tbaa !15
  %58 = getelementptr inbounds nuw i8, ptr %57, i64 16
  %59 = load ptr, ptr %58, align 8, !tbaa !14
  %60 = icmp eq ptr %1, %59
  br i1 %60, label %61, label %62

61:                                               ; preds = %43
  store ptr %17, ptr %58, align 8, !tbaa !14
  br label %71

62:                                               ; preds = %43
  %63 = getelementptr inbounds nuw i8, ptr %57, i64 24
  store ptr %17, ptr %63, align 8, !tbaa !11
  br label %71

64:                                               ; preds = %38
  %65 = getelementptr inbounds nuw i8, ptr %0, i64 8
  %66 = load ptr, ptr %65, align 8, !tbaa !9
  %67 = load ptr, ptr %17, align 8, !tbaa !17
  tail call void %66(ptr noundef %67) #7
  %68 = getelementptr inbounds nuw i8, ptr %17, i64 8
  %69 = load i32, ptr %68, align 8, !tbaa !16
  %.not59 = icmp eq i32 %69, 0
  br i1 %.not59, label %70, label %71

70:                                               ; preds = %64
  tail call fastcc void @RBDeleteFixUp(ptr noundef nonnull %0, ptr noundef nonnull %24)
  br label %71

71:                                               ; preds = %64, %70, %61, %62
  %.sink = phi ptr [ %1, %62 ], [ %1, %61 ], [ %17, %70 ], [ %17, %64 ]
  tail call void @free(ptr noundef nonnull %.sink) #7
  ret void
}